; Function Attrs: mustprogress nounwind uwtable
define dso_local void @_ZN4llvm12IRTranslator17addMachineCFGPredESt4pairIPKNS_10BasicBlockES4_EPNS_17MachineBasicBlockE(ptr noundef nonnull align 8 dereferenceable(1848) %0, ptr %1, ptr %2, ptr noundef %3) local_unnamed_addr #0 align 2 {
  %5 = alloca %"struct.std::pair.409", align 8
  store ptr %1, ptr %5, align 8
  %6 = getelementptr inbounds nuw i8, ptr %5, i64 8
  store ptr %2, ptr %6, align 8
  %7 = getelementptr inbounds nuw i8, ptr %0, i64 304
  %8 = call noundef nonnull align 8 dereferenceable(40) ptr @_ZN4llvm12DenseMapBaseINS_8DenseMapISt4pairIPKNS_10BasicBlockES5_ENS_11SmallVectorIPNS_17MachineBasicBlockELj1EEENS_12DenseMapInfoIS6_vEENS_6detail12DenseMapPairIS6_SA_EEEES6_SA_SC_SF_E16FindAndConstructERKS6_(ptr noundef nonnull align 1 dereferenceable(1) %7, ptr noundef nonnull align 8 dereferenceable(16) %5)
  %9 = getelementptr inbounds nuw i8, ptr %8, i64 16
  %10 = call noundef i64 @_ZNK4llvm15SmallVectorBaseIjE4sizeEv(ptr noundef nonnull align 8 dereferenceable(16) %9) #23
  %11 = add i64 %10, 1
  %12 = call noundef i64 @_ZNK4llvm15SmallVectorBaseIjE8capacityEv(ptr noundef nonnull align 8 dereferenceable(16) %9) #23
  %.not.i.i.i = icmp ugt i64 %11, %12
  br i1 %.not.i.i.i, label %13, label %_ZN4llvm23SmallVectorTemplateBaseIPNS_17MachineBasicBlockELb1EE9push_backES2_.exit

13:                                               ; preds = %4
  %14 = getelementptr inbounds i8, ptr %8, i64 32
  call void @_ZN4llvm15SmallVectorBaseIjE8grow_podEPvmm(ptr noundef nonnull align 8 dereferenceable(16) %9, ptr noundef nonnull %14, i64 noundef %11, i64 noundef 8) #23
  br label %_ZN4llvm23SmallVectorTemplateBaseIPNS_17MachineBasicBlockELb1EE9push_backES2_.exit

_ZN4llvm23SmallVectorTemplateBaseIPNS_17MachineBasicBlockELb1EE9push_backES2_.exit: ; preds = %4, %13
  %15 = load ptr, ptr %9, align 8
  %16 = call noundef i64 @_ZNK4llvm15SmallVectorBaseIjE4sizeEv(ptr noundef nonnull align 8 dereferenceable(16) %9) #23
  %17 = getelementptr inbounds ptr, ptr %15, i64 %16
  %18 = ptrtoint ptr %3 to i64
  store i64 %18, ptr %17, align 1
  %19 = call noundef i64 @_ZNK4llvm15SmallVectorBaseIjE4sizeEv(ptr noundef nonnull align 8 dereferenceable(16) %9) #23
  %20 = add i64 %19, 1
  call void @_ZN4llvm15SmallVectorBaseIjE8set_sizeEm(ptr noundef nonnull align 8 dereferenceable(16) %9, i64 noundef %20) #23
  ret void
}